target datalayout = "e-m:e-p270:32:32-p271:32:32-p272:64:64-i64:64-i128:128-f80:128-n8:16:32:64-S128"
target triple = "x86_64-pc-linux-gnu"

%"class.LIEF::ELF::CoreAuxv" = type { %"class.LIEF::ELF::Note", i32, i32 }
%"class.LIEF::ELF::Note" = type { %"class.LIEF::Object", %"class.std::__cxx11::basic_string", i32, i32, %"class.std::vector", %"class.std::__cxx11::basic_string" }
%"class.LIEF::Object" = type { ptr }
%"class.std::vector" = type { %"struct.std::_Vector_base" }
%"struct.std::_Vector_base" = type { %"struct.std::_Vector_base<unsigned char, std::allocator<unsigned char>>::_Vector_impl" }
%"struct.std::_Vector_base<unsigned char, std::allocator<unsigned char>>::_Vector_impl" = type { %"struct.std::_Vector_base<unsigned char, std::allocator<unsigned char>>::_Vector_impl_data" }
%"struct.std::_Vector_base<unsigned char, std::allocator<unsigned char>>::_Vector_impl_data" = type { ptr, ptr, ptr }
%"class.std::__cxx11::basic_string" = type { %"struct.std::__cxx11::basic_string<char>::_Alloc_hider", i64, %union.anon.0 }
%"struct.std::__cxx11::basic_string<char>::_Alloc_hider" = type { ptr }
%union.anon.0 = type { i64, [8 x i8] }

; Function Attrs: mustprogress nounwind uwtable
define noundef zeroext i1 @_ZN4LIEF3ELF8CoreAuxv3setERKSt3mapINS1_4TYPEEmSt4lessIS3_ESaISt4pairIKS3_mEEE(ptr noundef nonnull align 8 dereferenceable(112) %0, ptr noundef nonnull align 8 dereferenceable(48) %1) #0 align 2 {
  %3 = alloca ptr, align 8
  %4 = alloca ptr, align 8
  store ptr %0, ptr %3, align 8, !tbaa !3
  store ptr %1, ptr %4, align 8, !tbaa !40
  %5 = load ptr, ptr %3, align 8
  %6 = getelementptr inbounds nuw %"class.LIEF::ELF::CoreAuxv", ptr %5, i32 0, i32 2
  %7 = load i32, ptr %6, align 4, !tbaa !10
  %8 = icmp eq i32 %7, 1
  br i1 %8, label %9, label %13

9:                                                ; preds = %2
  %10 = getelementptr inbounds nuw %"class.LIEF::ELF::Note", ptr %5, i32 0, i32 4
  %11 = load ptr, ptr %4, align 8, !tbaa !40
  %12 = call noundef zeroext i1 @_ZN4LIEF3ELF10write_implINS0_7details5ELF32EEEbRSt6vectorIhSaIhEERKSt3mapINS0_8CoreAuxv4TYPEEmSt4lessISA_ESaISt4pairIKSA_mEEE(ptr noundef nonnull align 8 dereferenceable(24) %10, ptr noundef nonnull align 8 dereferenceable(48) %11)
  br label %17

13:                                               ; preds = %2
  %14 = getelementptr inbounds nuw %"class.LIEF::ELF::Note", ptr %5, i32 0, i32 4
  %15 = load ptr, ptr %4, align 8, !tbaa !40
  %16 = call noundef zeroext i1 @_ZN4LIEF3ELF10write_implINS0_7details5ELF64EEEbRSt6vectorIhSaIhEERKSt3mapINS0_8CoreAuxv4TYPEEmSt4lessISA_ESaISt4pairIKSA_mEEE(ptr noundef nonnull align 8 dereferenceable(24) %14, ptr noundef nonnull align 8 dereferenceable(48) %15)
  br label %17

17:                                               ; preds = %13, %9
  %18 = phi i1 [ %12, %9 ], [ %16, %13 ]
  ret i1 %18
}