; Function Attrs: mustprogress nounwind uwtable
define noundef zeroext i1 @_ZN4LIEF3ELF8CoreAuxv3setERKSt3mapINS1_4TYPEEmSt4lessIS3_ESaISt4pairIKS3_mEEE(ptr noundef nonnull align 8 dereferenceable(112) %0, ptr noundef nonnull align 8 dereferenceable(48) %1) local_unnamed_addr #0 align 2 {
  %3 = getelementptr inbounds nuw i8, ptr %0, i64 108
  %4 = load i32, ptr %3, align 4, !tbaa !3
  %5 = icmp eq i32 %4, 1
  %6 = getelementptr inbounds nuw i8, ptr %0, i64 48
  br i1 %5, label %7, label %9

7:                                                ; preds = %2
  %8 = tail call noundef zeroext i1 @_ZN4LIEF3ELF10write_implINS0_7details5ELF32EEEbRSt6vectorIhSaIhEERKSt3mapINS0_8CoreAuxv4TYPEEmSt4lessISA_ESaISt4pairIKSA_mEEE(ptr noundef nonnull align 8 dereferenceable(24) %6, ptr noundef nonnull align 8 dereferenceable(48) %1)
  br label %11

9:                                                ; preds = %2
  %10 = tail call noundef zeroext i1 @_ZN4LIEF3ELF10write_implINS0_7details5ELF64EEEbRSt6vectorIhSaIhEERKSt3mapINS0_8CoreAuxv4TYPEEmSt4lessISA_ESaISt4pairIKSA_mEEE(ptr noundef nonnull align 8 dereferenceable(24) %6, ptr noundef nonnull align 8 dereferenceable(48) %1)
  br label %11

11:                                               ; preds = %9, %7
  %12 = phi i1 [ %8, %7 ], [ %10, %9 ]
  ret i1 %12
}